target datalayout = "e-m:e-p270:32:32-p271:32:32-p272:64:64-i64:64-i128:128-f80:128-n8:16:32:64-S128"
target triple = "x86_64-pc-linux-gnu"

%"class.cm::static_string_view" = type { %"class.std::basic_string_view" }
%"class.std::basic_string_view" = type { i64, ptr }
%class.cmCTestMemCheckCommand = type { %class.cmCTestTestCommand.base, %"class.std::__cxx11::basic_string" }
%class.cmCTestTestCommand.base = type <{ %class.cmCTestHandlerCommand, %"class.std::__cxx11::basic_string", %"class.std::__cxx11::basic_string", %"class.std::__cxx11::basic_string", %"class.std::__cxx11::basic_string", %"class.std::__cxx11::basic_string", %"class.std::__cxx11::basic_string", %"class.std::__cxx11::basic_string", %"class.std::__cxx11::basic_string", %"class.std::__cxx11::basic_string", %"class.std::__cxx11::basic_string", %"class.std::__cxx11::basic_string", %"class.std::__cxx11::basic_string", %"class.std::__cxx11::basic_string", %"class.std::__cxx11::basic_string", %"class.std::__cxx11::basic_string", %"class.std::__cxx11::basic_string", %"class.std::__cxx11::basic_string", %"class.std::__cxx11::basic_string", %"class.std::__cxx11::basic_string", i8 }>
%class.cmCTestHandlerCommand = type { %class.cmCTestCommand, %class.cmArgumentParser, %"class.std::vector.5", i8, i8, %"class.std::__cxx11::basic_string", %"class.std::__cxx11::basic_string", %"class.std::__cxx11::basic_string", %"class.std::__cxx11::basic_string", %"class.std::__cxx11::basic_string" }
%class.cmCTestCommand = type { %class.cmCommand, ptr, ptr }
%class.cmCommand = type { ptr, ptr, ptr }
%class.cmArgumentParser = type { %"class.ArgumentParser::Base" }
%"class.ArgumentParser::Base" = type { %"class.ArgumentParser::ActionMap" }
%"class.ArgumentParser::ActionMap" = type { %"class.ArgumentParser::KeywordActionMap", %"class.std::function", %"class.std::function", %"class.ArgumentParser::PositionActionMap" }
%"class.ArgumentParser::KeywordActionMap" = type { %"class.std::vector" }
%"class.std::vector" = type { %"struct.std::_Vector_base" }
%"struct.std::_Vector_base" = type { %"struct.std::_Vector_base<std::pair<std::basic_string_view<char>, std::function<void (ArgumentParser::Instance &)>>, std::allocator<std::pair<std::basic_string_view<char>, std::function<void (ArgumentParser::Instance &)>>>>::_Vector_impl" }
%"struct.std::_Vector_base<std::pair<std::basic_string_view<char>, std::function<void (ArgumentParser::Instance &)>>, std::allocator<std::pair<std::basic_string_view<char>, std::function<void (ArgumentParser::Instance &)>>>>::_Vector_impl" = type { %"struct.std::_Vector_base<std::pair<std::basic_string_view<char>, std::function<void (ArgumentParser::Instance &)>>, std::allocator<std::pair<std::basic_string_view<char>, std::function<void (ArgumentParser::Instance &)>>>>::_Vector_impl_data" }
%"struct.std::_Vector_base<std::pair<std::basic_string_view<char>, std::function<void (ArgumentParser::Instance &)>>, std::allocator<std::pair<std::basic_string_view<char>, std::function<void (ArgumentParser::Instance &)>>>>::_Vector_impl_data" = type { ptr, ptr, ptr }
%"class.std::function" = type { %"class.std::_Function_base", ptr }
%"class.std::_Function_base" = type { %"union.std::_Any_data", ptr }
%"union.std::_Any_data" = type { %"union.std::_Nocopy_types" }
%"union.std::_Nocopy_types" = type { { i64, i64 } }
%"class.ArgumentParser::PositionActionMap" = type { %"class.std::vector.0" }
%"class.std::vector.0" = type { %"struct.std::_Vector_base.1" }
%"struct.std::_Vector_base.1" = type { %"struct.std::_Vector_base<std::pair<unsigned long, std::function<void (ArgumentParser::Instance &, unsigned long, std::basic_string_view<char>)>>, std::allocator<std::pair<unsigned long, std::function<void (ArgumentParser::Instance &, unsigned long, std::basic_string_view<char>)>>>>::_Vector_impl" }
%"struct.std::_Vector_base<std::pair<unsigned long, std::function<void (ArgumentParser::Instance &, unsigned long, std::basic_string_view<char>)>>, std::allocator<std::pair<unsigned long, std::function<void (ArgumentParser::Instance &, unsigned long, std::basic_string_view<char>)>>>>::_Vector_impl" = type { %"struct.std::_Vector_base<std::pair<unsigned long, std::function<void (ArgumentParser::Instance &, unsigned long, std::basic_string_view<char>)>>, std::allocator<std::pair<unsigned long, std::function<void (ArgumentParser::Instance &, unsigned long, std::basic_string_view<char>)>>>>::_Vector_impl_data" }
%"struct.std::_Vector_base<std::pair<unsigned long, std::function<void (ArgumentParser::Instance &, unsigned long, std::basic_string_view<char>)>>, std::allocator<std::pair<unsigned long, std::function<void (ArgumentParser::Instance &, unsigned long, std::basic_string_view<char>)>>>>::_Vector_impl_data" = type { ptr, ptr, ptr }
%"class.std::vector.5" = type { %"struct.std::_Vector_base.6" }
%"struct.std::_Vector_base.6" = type { %"struct.std::_Vector_base<std::basic_string_view<char>, std::allocator<std::basic_string_view<char>>>::_Vector_impl" }
%"struct.std::_Vector_base<std::basic_string_view<char>, std::allocator<std::basic_string_view<char>>>::_Vector_impl" = type { %"struct.std::_Vector_base<std::basic_string_view<char>, std::allocator<std::basic_string_view<char>>>::_Vector_impl_data" }
%"struct.std::_Vector_base<std::basic_string_view<char>, std::allocator<std::basic_string_view<char>>>::_Vector_impl_data" = type { ptr, ptr, ptr }
%"class.std::__cxx11::basic_string" = type { %"struct.std::__cxx11::basic_string<char>::_Alloc_hider", i64, %union.anon }
%"struct.std::__cxx11::basic_string<char>::_Alloc_hider" = type { ptr }
%union.anon = type { i64, [8 x i8] }
%"class.std::function.212" = type { %"class.std::_Function_base", ptr }
%class.anon = type { ptr }

@.str = private unnamed_addr constant [13 x i8] c"DEFECT_COUNT\00", align 1

; Function Attrs: mustprogress nounwind uwtable
define linkonce_odr dso_local noundef ptr @_ZNSt9_Any_data9_M_accessEv(ptr noundef nonnull align 8 dereferenceable(16) %0) #5 comdat align 2 {
  %2 = alloca ptr, align 8
  store ptr %0, ptr %2, align 8
  %3 = load ptr, ptr %2, align 8
  %4 = getelementptr inbounds [16 x i8], ptr %3, i64 0, i64 0
  ret ptr %4
}

; Function Attrs: mustprogress nounwind uwtable
define linkonce_odr dso_local void @_ZNSt14_Function_base13_Base_managerIZN16cmArgumentParserIvE4BindINSt7__cxx1112basic_stringIcSt11char_traitsIcESaIcEEEEERS2_N2cm18static_string_viewERT_EUlRN14ArgumentParser8InstanceEE_E9_M_createISI_EEvRSt9_Any_dataOSD_St17integral_constantIbLb1EE(ptr noundef nonnull align 8 dereferenceable(16) %0, ptr noundef nonnull align 8 dereferenceable(8) %1) #5 comdat align 2 {
  %3 = alloca ptr, align 8
  %4 = alloca ptr, align 8
  store ptr %0, ptr %3, align 8
  store ptr %1, ptr %4, align 8
  %5 = load ptr, ptr %3, align 8
  %6 = call noundef ptr @_ZNSt9_Any_data9_M_accessEv(ptr noundef nonnull align 8 dereferenceable(16) %5) #3
  %7 = load ptr, ptr %4, align 8
  call void @llvm.memcpy.p0.p0.i64(ptr align 8 %6, ptr align 8 %7, i64 8, i1 false)
  ret void
}

; Function Attrs: mustprogress nounwind uwtable
define linkonce_odr dso_local void @_ZNSt14_Function_baseD2Ev(ptr noundef nonnull align 8 dereferenceable(24) %0) unnamed_addr #5 comdat align 2 personality ptr @__gxx_personality_v0 {
  %2 = alloca ptr, align 8
  store ptr %0, ptr %2, align 8
  %3 = load ptr, ptr %2, align 8
  %4 = getelementptr inbounds %"class.std::_Function_base", ptr %3, i32 0, i32 1
  %5 = load ptr, ptr %4, align 8
  %6 = icmp ne ptr %5, null
  br i1 %6, label %7, label %14

7:                                                ; preds = %1
  %8 = getelementptr inbounds %"class.std::_Function_base", ptr %3, i32 0, i32 1
  %9 = load ptr, ptr %8, align 8
  %10 = getelementptr inbounds %"class.std::_Function_base", ptr %3, i32 0, i32 0
  %11 = getelementptr inbounds %"class.std::_Function_base", ptr %3, i32 0, i32 0
  %12 = invoke noundef zeroext i1 %9(ptr noundef nonnull align 8 dereferenceable(16) %10, ptr noundef nonnull align 8 dereferenceable(16) %11, i32 noundef 3)
          to label %13 unwind label %15

13:                                               ; preds = %7
  br label %14

14:                                               ; preds = %13, %1
  ret void

15:                                               ; preds = %7
  %16 = landingpad { ptr, i32 }
          catch ptr null
  %17 = extractvalue { ptr, i32 } %16, 0
  call void @__clang_call_terminate(ptr %17) #14
  unreachable
}

; Function Attrs: mustprogress nounwind uwtable
define linkonce_odr dso_local void @_ZNSt14_Function_base13_Base_managerIZN16cmArgumentParserIvE4BindINSt7__cxx1112basic_stringIcSt11char_traitsIcESaIcEEEEERS2_N2cm18static_string_viewERT_EUlRN14ArgumentParser8InstanceEE_E15_M_init_functorISI_EEvRSt9_Any_dataOSD_(ptr noundef nonnull align 8 dereferenceable(16) %0, ptr noundef nonnull align 8 dereferenceable(8) %1) #5 comdat align 2 personality ptr @__gxx_personality_v0 {
  %3 = alloca ptr, align 8
  %4 = alloca ptr, align 8
  store ptr %0, ptr %3, align 8
  store ptr %1, ptr %4, align 8
  %5 = load ptr, ptr %3, align 8
  %6 = load ptr, ptr %4, align 8
  invoke void @_ZNSt14_Function_base13_Base_managerIZN16cmArgumentParserIvE4BindINSt7__cxx1112basic_stringIcSt11char_traitsIcESaIcEEEEERS2_N2cm18static_string_viewERT_EUlRN14ArgumentParser8InstanceEE_E9_M_createISI_EEvRSt9_Any_dataOSD_St17integral_constantIbLb1EE(ptr noundef nonnull align 8 dereferenceable(16) %5, ptr noundef nonnull align 8 dereferenceable(8) %6)
          to label %7 unwind label %8

7:                                                ; preds = %2
  ret void

8:                                                ; preds = %2
  %9 = landingpad { ptr, i32 }
          catch ptr null
  %10 = extractvalue { ptr, i32 } %9, 0
  call void @__clang_call_terminate(ptr %10) #14
  unreachable
}

; Function Attrs: mustprogress nounwind uwtable
define linkonce_odr dso_local noundef zeroext i1 @_ZNSt14_Function_base13_Base_managerIZN16cmArgumentParserIvE4BindINSt7__cxx1112basic_stringIcSt11char_traitsIcESaIcEEEEERS2_N2cm18static_string_viewERT_EUlRN14ArgumentParser8InstanceEE_E21_M_not_empty_functionISI_EEbRKSD_(ptr noundef nonnull align 8 dereferenceable(8) %0) #5 comdat align 2 {
  %2 = alloca ptr, align 8
  store ptr %0, ptr %2, align 8
  ret i1 true
}

; Function Attrs: mustprogress nounwind uwtable
define linkonce_odr dso_local void @_ZNSt14_Function_baseC2Ev(ptr noundef nonnull align 8 dereferenceable(24) %0) unnamed_addr #5 comdat align 2 {
  %2 = alloca ptr, align 8
  store ptr %0, ptr %2, align 8
  %3 = load ptr, ptr %2, align 8
  %4 = getelementptr inbounds %"class.std::_Function_base", ptr %3, i32 0, i32 0
  store ptr null, ptr %4, align 8
  %5 = getelementptr inbounds %"class.std::_Function_base", ptr %3, i32 0, i32 1
  store ptr null, ptr %5, align 8
  ret void
}

; Function Attrs: mustprogress nounwind uwtable
define linkonce_odr dso_local void @_ZNSt8functionIFvRN14ArgumentParser8InstanceEEED2Ev(ptr noundef nonnull align 8 dereferenceable(32) %0) unnamed_addr #5 comdat align 2 {
  %2 = alloca ptr, align 8
  store ptr %0, ptr %2, align 8
  %3 = load ptr, ptr %2, align 8
  call void @_ZNSt14_Function_baseD2Ev(ptr noundef nonnull align 8 dereferenceable(24) %3) #3
  ret void
}

; Function Attrs: mustprogress nounwind uwtable
define linkonce_odr dso_local void @_ZNSt8functionIFvRN14ArgumentParser8InstanceEEEC2IZN16cmArgumentParserIvE4BindINSt7__cxx1112basic_stringIcSt11char_traitsIcESaIcEEEEERS7_N2cm18static_string_viewERT_EUlS2_E_vEEOSI_(ptr noundef nonnull align 8 dereferenceable(32) %0, ptr noundef nonnull align 8 dereferenceable(8) %1) unnamed_addr #5 comdat align 2 {
  %3 = alloca ptr, align 8
  %4 = alloca ptr, align 8
  store ptr %0, ptr %3, align 8
  store ptr %1, ptr %4, align 8
  %5 = load ptr, ptr %3, align 8
  %6 = getelementptr inbounds i8, ptr %5, i64 0
  call void @llvm.memset.p0.i64(ptr align 8 %6, i8 0, i64 24, i1 false)
  call void @_ZNSt14_Function_baseC2Ev(ptr noundef nonnull align 8 dereferenceable(24) %5) #3
  %7 = getelementptr inbounds %"class.std::function.212", ptr %5, i32 0, i32 1
  store ptr null, ptr %7, align 8
  %8 = load ptr, ptr %4, align 8
  %9 = call noundef zeroext i1 @_ZNSt14_Function_base13_Base_managerIZN16cmArgumentParserIvE4BindINSt7__cxx1112basic_stringIcSt11char_traitsIcESaIcEEEEERS2_N2cm18static_string_viewERT_EUlRN14ArgumentParser8InstanceEE_E21_M_not_empty_functionISI_EEbRKSD_(ptr noundef nonnull align 8 dereferenceable(8) %8) #3
  br i1 %9, label %10, label %15

10:                                               ; preds = %2
  %11 = getelementptr inbounds %"class.std::_Function_base", ptr %5, i32 0, i32 0
  %12 = load ptr, ptr %4, align 8
  call void @_ZNSt14_Function_base13_Base_managerIZN16cmArgumentParserIvE4BindINSt7__cxx1112basic_stringIcSt11char_traitsIcESaIcEEEEERS2_N2cm18static_string_viewERT_EUlRN14ArgumentParser8InstanceEE_E15_M_init_functorISI_EEvRSt9_Any_dataOSD_(ptr noundef nonnull align 8 dereferenceable(16) %11, ptr noundef nonnull align 8 dereferenceable(8) %12) #3
  %13 = getelementptr inbounds %"class.std::function.212", ptr %5, i32 0, i32 1
  store ptr @_ZNSt17_Function_handlerIFvRN14ArgumentParser8InstanceEEZN16cmArgumentParserIvE4BindINSt7__cxx1112basic_stringIcSt11char_traitsIcESaIcEEEEERS5_N2cm18static_string_viewERT_EUlS2_E_E9_M_invokeERKSt9_Any_dataS2_, ptr %13, align 8
  %14 = getelementptr inbounds %"class.std::_Function_base", ptr %5, i32 0, i32 1
  store ptr @_ZNSt17_Function_handlerIFvRN14ArgumentParser8InstanceEEZN16cmArgumentParserIvE4BindINSt7__cxx1112basic_stringIcSt11char_traitsIcESaIcEEEEERS5_N2cm18static_string_viewERT_EUlS2_E_E10_M_managerERSt9_Any_dataRKSK_St18_Manager_operation, ptr %14, align 8
  br label %15

15:                                               ; preds = %10, %2
  ret void
}

; Function Attrs: mustprogress nounwind uwtable
define linkonce_odr dso_local void @_ZN2cm18static_string_viewC2ESt17basic_string_viewIcSt11char_traitsIcEE(ptr noundef nonnull align 8 dereferenceable(16) %0, i64 %1, ptr %2) unnamed_addr #5 comdat align 2 {
  %4 = alloca %"class.std::basic_string_view", align 8
  %5 = alloca ptr, align 8
  %6 = getelementptr inbounds { i64, ptr }, ptr %4, i32 0, i32 0
  store i64 %1, ptr %6, align 8
  %7 = getelementptr inbounds { i64, ptr }, ptr %4, i32 0, i32 1
  store ptr %2, ptr %7, align 8
  store ptr %0, ptr %5, align 8
  %8 = load ptr, ptr %5, align 8
  call void @llvm.memcpy.p0.p0.i64(ptr align 8 %8, ptr align 8 %4, i64 16, i1 false)
  ret void
}

; Function Attrs: mustprogress nounwind uwtable
define linkonce_odr dso_local void @_ZNSt17basic_string_viewIcSt11char_traitsIcEEC2EPKcm(ptr noundef nonnull align 8 dereferenceable(16) %0, ptr noundef %1, i64 noundef %2) unnamed_addr #5 comdat align 2 {
  %4 = alloca ptr, align 8
  %5 = alloca ptr, align 8
  %6 = alloca i64, align 8
  store ptr %0, ptr %4, align 8
  store ptr %1, ptr %5, align 8
  store i64 %2, ptr %6, align 8
  %7 = load ptr, ptr %4, align 8
  %8 = getelementptr inbounds %"class.std::basic_string_view", ptr %7, i32 0, i32 0
  %9 = load i64, ptr %6, align 8
  store i64 %9, ptr %8, align 8
  %10 = getelementptr inbounds %"class.std::basic_string_view", ptr %7, i32 0, i32 1
  %11 = load ptr, ptr %5, align 8
  store ptr %11, ptr %10, align 8
  ret void
}

; Function Attrs: mustprogress uwtable
define linkonce_odr dso_local noundef nonnull align 8 dereferenceable(112) ptr @_ZN16cmArgumentParserIvE4BindINSt7__cxx1112basic_stringIcSt11char_traitsIcESaIcEEEEERS0_N2cm18static_string_viewERT_(ptr noundef nonnull align 8 dereferenceable(112) %0, i64 %1, ptr %2, ptr noundef nonnull align 8 dereferenceable(32) %3) #4 comdat align 2 personality ptr @__gxx_personality_v0 {
  %5 = alloca %"class.cm::static_string_view", align 8
  %6 = alloca ptr, align 8
  %7 = alloca ptr, align 8
  %8 = alloca %"class.std::basic_string_view", align 8
  %9 = alloca %"class.std::function.212", align 8
  %10 = alloca %class.anon, align 8
  %11 = alloca ptr, align 8
  %12 = alloca i32, align 4
  %13 = getelementptr inbounds { i64, ptr }, ptr %5, i32 0, i32 0
  store i64 %1, ptr %13, align 8
  %14 = getelementptr inbounds { i64, ptr }, ptr %5, i32 0, i32 1
  store ptr %2, ptr %14, align 8
  store ptr %0, ptr %6, align 8
  store ptr %3, ptr %7, align 8
  %15 = load ptr, ptr %6, align 8
  call void @llvm.memcpy.p0.p0.i64(ptr align 8 %8, ptr align 8 %5, i64 16, i1 false)
  %16 = getelementptr inbounds %class.anon, ptr %10, i32 0, i32 0
  %17 = load ptr, ptr %7, align 8
  store ptr %17, ptr %16, align 8
  call void @_ZNSt8functionIFvRN14ArgumentParser8InstanceEEEC2IZN16cmArgumentParserIvE4BindINSt7__cxx1112basic_stringIcSt11char_traitsIcESaIcEEEEERS7_N2cm18static_string_viewERT_EUlS2_E_vEEOSI_(ptr noundef nonnull align 8 dereferenceable(32) %9, ptr noundef nonnull align 8 dereferenceable(8) %10) #3
  %18 = getelementptr inbounds { i64, ptr }, ptr %8, i32 0, i32 0
  %19 = load i64, ptr %18, align 8
  %20 = getelementptr inbounds { i64, ptr }, ptr %8, i32 0, i32 1
  %21 = load ptr, ptr %20, align 8
  invoke void @_ZN14ArgumentParser4Base4BindESt17basic_string_viewIcSt11char_traitsIcEESt8functionIFvRNS_8InstanceEEE(ptr noundef nonnull align 8 dereferenceable(112) %15, i64 %19, ptr %21, ptr noundef %9)
          to label %22 unwind label %23

22:                                               ; preds = %4
  call void @_ZNSt8functionIFvRN14ArgumentParser8InstanceEEED2Ev(ptr noundef nonnull align 8 dereferenceable(32) %9) #3
  ret ptr %15

23:                                               ; preds = %4
  %24 = landingpad { ptr, i32 }
          cleanup
  %25 = extractvalue { ptr, i32 } %24, 0
  store ptr %25, ptr %11, align 8
  %26 = extractvalue { ptr, i32 } %24, 1
  store i32 %26, ptr %12, align 4
  call void @_ZNSt8functionIFvRN14ArgumentParser8InstanceEEED2Ev(ptr noundef nonnull align 8 dereferenceable(32) %9) #3
  br label %27

27:                                               ; preds = %23
  %28 = load ptr, ptr %11, align 8
  %29 = load i32, ptr %12, align 4
  %30 = insertvalue { ptr, i32 } poison, ptr %28, 0
  %31 = insertvalue { ptr, i32 } %30, i32 %29, 1
  resume { ptr, i32 } %31
}

; Function Attrs: mustprogress uwtable
define linkonce_odr dso_local { i64, ptr } @_ZN2cmli2_sEPKcm(ptr noundef %0, i64 noundef %1) #4 comdat {
  %3 = alloca %"class.cm::static_string_view", align 8
  %4 = alloca ptr, align 8
  %5 = alloca i64, align 8
  %6 = alloca %"class.std::basic_string_view", align 8
  store ptr %0, ptr %4, align 8
  store i64 %1, ptr %5, align 8
  %7 = load ptr, ptr %4, align 8
  %8 = load i64, ptr %5, align 8
  call void @_ZNSt17basic_string_viewIcSt11char_traitsIcEEC2EPKcm(ptr noundef nonnull align 8 dereferenceable(16) %6, ptr noundef %7, i64 noundef %8) #3
  %9 = getelementptr inbounds { i64, ptr }, ptr %6, i32 0, i32 0
  %10 = load i64, ptr %9, align 8
  %11 = getelementptr inbounds { i64, ptr }, ptr %6, i32 0, i32 1
  %12 = load ptr, ptr %11, align 8
  call void @_ZN2cm18static_string_viewC2ESt17basic_string_viewIcSt11char_traitsIcEE(ptr noundef nonnull align 8 dereferenceable(16) %3, i64 %10, ptr %12)
  %13 = getelementptr inbounds %"class.cm::static_string_view", ptr %3, i32 0, i32 0
  %14 = load { i64, ptr }, ptr %13, align 8
  ret { i64, ptr } %14
}

; Function Attrs: mustprogress uwtable
define dso_local void @_ZN22cmCTestMemCheckCommand13BindArgumentsEv(ptr noundef nonnull align 8 dereferenceable(992) %0) unnamed_addr #4 align 2 {
  %2 = alloca ptr, align 8
  %3 = alloca %"class.cm::static_string_view", align 8
  store ptr %0, ptr %2, align 8
  %4 = load ptr, ptr %2, align 8
  call void @_ZN18cmCTestTestCommand13BindArgumentsEv(ptr noundef nonnull align 8 dereferenceable(953) %4)
  %5 = getelementptr inbounds i8, ptr %4, i64 40
  %6 = call { i64, ptr } @_ZN2cmli2_sEPKcm(ptr noundef @.str, i64 noundef 12)
  %7 = getelementptr inbounds %"class.cm::static_string_view", ptr %3, i32 0, i32 0
  %8 = getelementptr inbounds { i64, ptr }, ptr %7, i32 0, i32 0
  %9 = extractvalue { i64, ptr } %6, 0
  store i64 %9, ptr %8, align 8
  %10 = getelementptr inbounds { i64, ptr }, ptr %7, i32 0, i32 1
  %11 = extractvalue { i64, ptr } %6, 1
  store ptr %11, ptr %10, align 8
  %12 = getelementptr inbounds %class.cmCTestMemCheckCommand, ptr %4, i32 0, i32 1
  %13 = getelementptr inbounds { i64, ptr }, ptr %3, i32 0, i32 0
  %14 = load i64, ptr %13, align 8
  %15 = getelementptr inbounds { i64, ptr }, ptr %3, i32 0, i32 1
  %16 = load ptr, ptr %15, align 8
  %17 = call noundef nonnull align 8 dereferenceable(112) ptr @_ZN16cmArgumentParserIvE4BindINSt7__cxx1112basic_stringIcSt11char_traitsIcESaIcEEEEERS0_N2cm18static_string_viewERT_(ptr noundef nonnull align 8 dereferenceable(112) %5, i64 %14, ptr %16, ptr noundef nonnull align 8 dereferenceable(32) %12)
  ret void
}