; Function Attrs: mustprogress uwtable
define dso_local void @_ZN22cmCTestMemCheckCommand13BindArgumentsEv(ptr noundef nonnull align 8 dereferenceable(992) %0) unnamed_addr #3 align 2 personality ptr @__gxx_personality_v0 {
  %2 = alloca %"class.std::function.212", align 8
  tail call void @_ZN18cmCTestTestCommand13BindArgumentsEv(ptr noundef nonnull align 8 dereferenceable(953) %0)
  %3 = getelementptr inbounds i8, ptr %0, i64 40
  %4 = getelementptr inbounds i8, ptr %0, i64 960
  call void @llvm.lifetime.start.p0(i64 32, ptr nonnull %2)
  %5 = getelementptr inbounds i8, ptr %2, i64 16
  %6 = getelementptr inbounds i8, ptr %2, i64 24
  %7 = getelementptr inbounds i8, ptr %2, i64 8
  store i64 0, ptr %7, align 8
  %8 = ptrtoint ptr %4 to i64
  store i64 %8, ptr %2, align 8
  store ptr @_ZNSt17_Function_handlerIFvRN14ArgumentParser8InstanceEEZN16cmArgumentParserIvE4BindINSt7__cxx1112basic_stringIcSt11char_traitsIcESaIcEEEEERS5_N2cm18static_string_viewERT_EUlS2_E_E9_M_invokeERKSt9_Any_dataS2_, ptr %6, align 8
  store ptr @_ZNSt17_Function_handlerIFvRN14ArgumentParser8InstanceEEZN16cmArgumentParserIvE4BindINSt7__cxx1112basic_stringIcSt11char_traitsIcESaIcEEEEERS5_N2cm18static_string_viewERT_EUlS2_E_E10_M_managerERSt9_Any_dataRKSK_St18_Manager_operation, ptr %5, align 8
  invoke void @_ZN14ArgumentParser4Base4BindESt17basic_string_viewIcSt11char_traitsIcEESt8functionIFvRNS_8InstanceEEE(ptr noundef nonnull align 8 dereferenceable(112) %3, i64 12, ptr nonnull @.str, ptr noundef nonnull %2)
          to label %9 unwind label %16

9:                                                ; preds = %1
  %10 = load ptr, ptr %5, align 8
  %.not.i.i.i = icmp eq ptr %10, null
  br i1 %.not.i.i.i, label %_ZN16cmArgumentParserIvE4BindINSt7__cxx1112basic_stringIcSt11char_traitsIcESaIcEEEEERS0_N2cm18static_string_viewERT_.exit, label %11

11:                                               ; preds = %9
  %12 = invoke noundef zeroext i1 %10(ptr noundef nonnull align 8 dereferenceable(16) %2, ptr noundef nonnull align 8 dereferenceable(16) %2, i32 noundef 3)
          to label %_ZN16cmArgumentParserIvE4BindINSt7__cxx1112basic_stringIcSt11char_traitsIcESaIcEEEEERS0_N2cm18static_string_viewERT_.exit unwind label %13

13:                                               ; preds = %11
  %14 = landingpad { ptr, i32 }
          catch ptr null
  %15 = extractvalue { ptr, i32 } %14, 0
  call void @__clang_call_terminate(ptr %15) #13
  unreachable

16:                                               ; preds = %1
  %17 = landingpad { ptr, i32 }
          cleanup
  %18 = load ptr, ptr %5, align 8
  %.not.i.i5.i = icmp eq ptr %18, null
  br i1 %.not.i.i5.i, label %_ZNSt8functionIFvRN14ArgumentParser8InstanceEEED2Ev.exit6.i, label %19

19:                                               ; preds = %16
  %20 = invoke noundef zeroext i1 %18(ptr noundef nonnull align 8 dereferenceable(16) %2, ptr noundef nonnull align 8 dereferenceable(16) %2, i32 noundef 3)
          to label %_ZNSt8functionIFvRN14ArgumentParser8InstanceEEED2Ev.exit6.i unwind label %21

21:                                               ; preds = %19
  %22 = landingpad { ptr, i32 }
          catch ptr null
  %23 = extractvalue { ptr, i32 } %22, 0
  call void @__clang_call_terminate(ptr %23) #13
  unreachable

_ZNSt8functionIFvRN14ArgumentParser8InstanceEEED2Ev.exit6.i: ; preds = %19, %16
  resume { ptr, i32 } %17

_ZN16cmArgumentParserIvE4BindINSt7__cxx1112basic_stringIcSt11char_traitsIcESaIcEEEEERS0_N2cm18static_string_viewERT_.exit: ; preds = %9, %11
  call void @llvm.lifetime.end.p0(i64 32, ptr nonnull %2)
  ret void
}